target datalayout = "e-m:e-p270:32:32-p271:32:32-p272:64:64-i64:64-i128:128-f80:128-n8:16:32:64-S128"
target triple = "x86_64-pc-linux-gnu"

%"class.rocksdb::MemTableList" = type { %"struct.std::atomic", %"struct.std::atomic", i32, ptr, i32, i8, i8, i64, %"struct.std::atomic.47", %"struct.std::atomic", i64 }
%"struct.std::atomic.47" = type { %"struct.std::__atomic_base.48" }
%"struct.std::__atomic_base.48" = type { i64 }
%"struct.std::atomic" = type { %"struct.std::__atomic_base" }
%"struct.std::__atomic_base" = type { i8 }

; Function Attrs: mustprogress nounwind uwtable
define noundef zeroext i1 @_ZNK7rocksdb12MemTableList14IsFlushPendingEv(ptr noundef nonnull align 8 dereferenceable(56) %0) #3 align 2 {
  %2 = alloca i1, align 1
  %3 = alloca ptr, align 8
  store ptr %0, ptr %3, align 8, !tbaa !141
  %4 = load ptr, ptr %3, align 8
  %5 = getelementptr inbounds nuw %"class.rocksdb::MemTableList", ptr %4, i32 0, i32 6
  %6 = load i8, ptr %5, align 1, !tbaa !262, !range !164, !noundef !165
  %7 = trunc i8 %6 to i1
  br i1 %7, label %8, label %12

8:                                                ; preds = %1
  %9 = getelementptr inbounds nuw %"class.rocksdb::MemTableList", ptr %4, i32 0, i32 4
  %10 = load i32, ptr %9, align 8, !tbaa !263
  %11 = icmp sgt i32 %10, 0
  br i1 %11, label %18, label %12

12:                                               ; preds = %8, %1
  %13 = getelementptr inbounds nuw %"class.rocksdb::MemTableList", ptr %4, i32 0, i32 4
  %14 = load i32, ptr %13, align 8, !tbaa !263
  %15 = getelementptr inbounds nuw %"class.rocksdb::MemTableList", ptr %4, i32 0, i32 2
  %16 = load i32, ptr %15, align 4, !tbaa !264
  %17 = icmp sge i32 %14, %16
  br i1 %17, label %18, label %19

18:                                               ; preds = %12, %8
  store i1 true, ptr %2, align 1
  br label %20

19:                                               ; preds = %12
  store i1 false, ptr %2, align 1
  br label %20

20:                                               ; preds = %19, %18
  %21 = load i1, ptr %2, align 1
  ret i1 %21
}