; Function Attrs: mustprogress nofree norecurse nosync nounwind willreturn memory(argmem: read) uwtable
define noundef zeroext i1 @_ZNK7rocksdb12MemTableList14IsFlushPendingEv(ptr noundef nonnull readonly align 8 captures(none) dereferenceable(56) %0) local_unnamed_addr #12 align 2 {
  %2 = getelementptr inbounds nuw i8, ptr %0, i64 21
  %3 = load i8, ptr %2, align 1, !tbaa !213, !range !178, !noundef !179
  %4 = trunc nuw i8 %3 to i1
  %5 = getelementptr inbounds nuw i8, ptr %0, i64 16
  %6 = load i32, ptr %5, align 8
  %7 = icmp sgt i32 %6, 0
  %or.cond = select i1 %4, i1 %7, i1 false
  br i1 %or.cond, label %11, label %8

8:                                                ; preds = %1
  %9 = getelementptr inbounds nuw i8, ptr %0, i64 4
  %10 = load i32, ptr %9, align 4, !tbaa !214
  %.not = icmp sge i32 %6, %10
  br label %11

11:                                               ; preds = %8, %1
  %.0 = phi i1 [ true, %1 ], [ %.not, %8 ]
  ret i1 %.0
}